; Function Attrs: nounwind uwtable
define noalias ptr @OSSL_STORE_INFO_new_NAME(ptr noundef %0) local_unnamed_addr #0 {
  %2 = tail call noalias ptr @CRYPTO_zalloc(i64 noundef 24, ptr noundef nonnull @.str.2, i32 noundef 609) #9
  %3 = icmp eq ptr %2, null
  br i1 %3, label %4, label %5

4:                                                ; preds = %1
  tail call void @ERR_new() #9
  tail call void @ERR_set_debug(ptr noundef nonnull @.str.2, i32 noundef 624, ptr noundef nonnull @__func__.OSSL_STORE_INFO_new_NAME) #9
  tail call void (i32, i32, ptr, ...) @ERR_set_error(i32 noundef 44, i32 noundef 524332, ptr noundef null) #9
  br label %8

5:                                                ; preds = %1
  store i32 1, ptr %2, align 8, !tbaa !68
  %6 = getelementptr inbounds nuw i8, ptr %2, i64 8
  store ptr %0, ptr %6, align 8, !tbaa !8
  %7 = getelementptr inbounds nuw i8, ptr %2, i64 16
  store ptr null, ptr %7, align 8, !tbaa !8
  br label %8

8:                                                ; preds = %5, %4
  ret ptr %2
}